target datalayout = "e-m:e-p270:32:32-p271:32:32-p272:64:64-i64:64-i128:128-f80:128-n8:16:32:64-S128"
target triple = "x86_64-pc-linux-gnu"

@.str = private unnamed_addr constant [5 x i8] c"refl\00", align 1
@.str.1 = private unnamed_addr constant [6 x i8] c"scope\00", align 1
@.str.2 = private unnamed_addr constant [9 x i8] c"neg_symm\00", align 1
@.str.3 = private unnamed_addr constant [5 x i8] c"cong\00", align 1
@.str.4 = private unnamed_addr constant [11 x i8] c"and_intro1\00", align 1
@.str.5 = private unnamed_addr constant [11 x i8] c"and_intro2\00", align 1
@.str.6 = private unnamed_addr constant [12 x i8] c"not_and_rev\00", align 1
@.str.7 = private unnamed_addr constant [14 x i8] c"process_scope\00", align 1
@.str.8 = private unnamed_addr constant [13 x i8] c"arith_sum_ub\00", align 1
@.str.9 = private unnamed_addr constant [20 x i8] c"concat_conflict_deq\00", align 1
@.str.10 = private unnamed_addr constant [12 x i8] c"instantiate\00", align 1
@.str.11 = private unnamed_addr constant [10 x i8] c"skolemize\00", align 1
@.str.12 = private unnamed_addr constant [12 x i8] c"beta_reduce\00", align 1
@.str.13 = private unnamed_addr constant [2 x i8] c"\\\00", align 1
@.str.14 = private unnamed_addr constant [5 x i8] c"plet\00", align 1
@.str.15 = private unnamed_addr constant [2 x i8] c"?\00", align 1

; Function Attrs: mustprogress nounwind uwtable
define hidden noundef ptr @_ZN4cvc58internal5proof8toStringENS1_8LfscRuleE(i32 noundef %0) #4 {
  %2 = alloca ptr, align 8
  %3 = alloca i32, align 4
  store i32 %0, ptr %3, align 4, !tbaa !3
  %4 = load i32, ptr %3, align 4, !tbaa !3
  switch i32 %4, label %20 [
    i32 0, label %5
    i32 1, label %6
    i32 2, label %7
    i32 3, label %8
    i32 4, label %9
    i32 5, label %10
    i32 6, label %11
    i32 7, label %12
    i32 8, label %13
    i32 9, label %14
    i32 10, label %15
    i32 11, label %16
    i32 12, label %17
    i32 13, label %18
    i32 14, label %19
  ]

5:                                                ; preds = %1
  store ptr @.str, ptr %2, align 8
  br label %21

6:                                                ; preds = %1
  store ptr @.str.1, ptr %2, align 8
  br label %21

7:                                                ; preds = %1
  store ptr @.str.2, ptr %2, align 8
  br label %21

8:                                                ; preds = %1
  store ptr @.str.3, ptr %2, align 8
  br label %21

9:                                                ; preds = %1
  store ptr @.str.4, ptr %2, align 8
  br label %21

10:                                               ; preds = %1
  store ptr @.str.5, ptr %2, align 8
  br label %21

11:                                               ; preds = %1
  store ptr @.str.6, ptr %2, align 8
  br label %21

12:                                               ; preds = %1
  store ptr @.str.7, ptr %2, align 8
  br label %21

13:                                               ; preds = %1
  store ptr @.str.8, ptr %2, align 8
  br label %21

14:                                               ; preds = %1
  store ptr @.str.9, ptr %2, align 8
  br label %21

15:                                               ; preds = %1
  store ptr @.str.10, ptr %2, align 8
  br label %21

16:                                               ; preds = %1
  store ptr @.str.11, ptr %2, align 8
  br label %21

17:                                               ; preds = %1
  store ptr @.str.12, ptr %2, align 8
  br label %21

18:                                               ; preds = %1
  store ptr @.str.13, ptr %2, align 8
  br label %21

19:                                               ; preds = %1
  store ptr @.str.14, ptr %2, align 8
  br label %21

20:                                               ; preds = %1
  store ptr @.str.15, ptr %2, align 8
  br label %21

21:                                               ; preds = %20, %19, %18, %17, %16, %15, %14, %13, %12, %11, %10, %9, %8, %7, %6, %5
  %22 = load ptr, ptr %2, align 8
  ret ptr %22
}